; Function Attrs: nounwind sspstrong uwtable
define internal i64 @ossl_asn1obj_get_ln(i64 noundef %0) #0 {
  %2 = alloca i64, align 8
  call void @llvm.lifetime.start.p0(i64 8, ptr nonnull %2) #9
  %3 = load i64, ptr @sivVALUE, align 8, !tbaa !17
  %4 = tail call i64 @rb_attr_get(i64 noundef %0, i64 noundef %3) #9
  store i64 %4, ptr %2, align 8, !tbaa !17
  %5 = call ptr @rb_string_value_cstr(ptr noundef nonnull %2) #9
  %6 = call i32 @OBJ_txt2nid(ptr noundef %5) #9
  %.not = icmp eq i32 %6, 0
  br i1 %.not, label %10, label %7

7:                                                ; preds = %1
  %8 = call ptr @OBJ_nid2ln(i32 noundef %6) #9
  %9 = call i64 @rb_str_new_cstr(ptr noundef %8) #9
  br label %10

10:                                               ; preds = %7, %1
  %.0 = phi i64 [ %9, %7 ], [ 4, %1 ]
  call void @llvm.lifetime.end.p0(i64 8, ptr nonnull %2) #9
  ret i64 %.0
}